; Function Attrs: mustprogress nounwind uwtable
define dso_local void @_ZN4llvm9DwarfUnit13addSourceLineERNS_3DIEEPKNS_12DISubprogramE(ptr noundef nonnull align 8 dereferenceable(328) %0, ptr noundef nonnull align 8 dereferenceable(48) %1, ptr noundef %2) local_unnamed_addr #0 align 2 {
  %4 = getelementptr inbounds nuw i8, ptr %2, i64 16
  %5 = load i32, ptr %4, align 8
  %6 = load i8, ptr %2, align 4
  %7 = icmp eq i8 %6, 16
  br i1 %7, label %_ZNK4llvm7DIScope7getFileEv.exit, label %8

8:                                                ; preds = %3
  %9 = getelementptr inbounds i8, ptr %2, i64 -16
  %10 = load i64, ptr %9, align 8
  %11 = and i64 %10, 2
  %.not.i.i.i.i = icmp eq i64 %11, 0
  br i1 %.not.i.i.i.i, label %16, label %12

12:                                               ; preds = %8
  %13 = getelementptr inbounds i8, ptr %2, i64 -32
  %14 = load ptr, ptr %13, align 8
  %15 = tail call noundef i64 @_ZNK4llvm15SmallVectorBaseIjE4sizeEv(ptr noundef nonnull align 8 dereferenceable(16) %13) #19
  br label %_ZNK4llvm6MDNode10getOperandEj.exit.i.i

16:                                               ; preds = %8
  %17 = lshr i64 %10, 2
  %18 = and i64 %17, 15
  %19 = sub nsw i64 0, %18
  %20 = getelementptr inbounds %"class.llvm::MDOperand", ptr %9, i64 %19
  br label %_ZNK4llvm6MDNode10getOperandEj.exit.i.i

_ZNK4llvm6MDNode10getOperandEj.exit.i.i:          ; preds = %16, %12
  %.sroa.0.0.i.i.i.i = phi ptr [ %20, %16 ], [ %14, %12 ]
  %21 = load ptr, ptr %.sroa.0.0.i.i.i.i, align 8
  br label %_ZNK4llvm7DIScope7getFileEv.exit

_ZNK4llvm7DIScope7getFileEv.exit:                 ; preds = %3, %_ZNK4llvm6MDNode10getOperandEj.exit.i.i
  %22 = phi ptr [ %21, %_ZNK4llvm6MDNode10getOperandEj.exit.i.i ], [ %2, %3 ]
  tail call void @_ZN4llvm9DwarfUnit13addSourceLineERNS_3DIEEjPKNS_6DIFileE(ptr noundef nonnull align 8 dereferenceable(328) %0, ptr noundef nonnull align 8 dereferenceable(48) %1, i32 noundef %5, ptr noundef %22)
  ret void
}